target datalayout = "e-m:e-p270:32:32-p271:32:32-p272:64:64-i64:64-i128:128-f80:128-n8:16:32:64-S128"
target triple = "x86_64-pc-linux-gnu"

%struct.ForEachState = type { ptr, i32 }
%struct.List = type { i32, i32, i32, ptr, [0 x %union.ListCell] }
%union.ListCell = type { ptr }
%struct.EventTriggerData = type { i32, ptr, ptr, i32 }
%struct.EventTriggerCacheItem = type { i32, i8, ptr }

@event_triggers = dso_local global i8 1, align 1
@.str.4 = private unnamed_addr constant [16 x i8] c"ddl_command_end\00", align 1
@IsUnderPostmaster = external global i8, align 1
@currentEventTriggerState = internal global ptr null, align 8
@SessionReplicationRole = external global i32, align 4

; Function Attrs: nounwind uwtable
define internal zeroext i1 @filter_event_trigger(i32 noundef %0, ptr noundef %1) #0 {
  %3 = alloca i1, align 1
  %4 = alloca i32, align 4
  %5 = alloca ptr, align 8
  store i32 %0, ptr %4, align 4
  store ptr %1, ptr %5, align 8
  %6 = load i32, ptr @SessionReplicationRole, align 4
  %7 = icmp eq i32 %6, 1
  br i1 %7, label %8, label %16

8:                                                ; preds = %2
  %9 = load ptr, ptr %5, align 8
  %10 = getelementptr inbounds nuw %struct.EventTriggerCacheItem, ptr %9, i32 0, i32 1
  %11 = load i8, ptr %10, align 4
  %12 = sext i8 %11 to i32
  %13 = icmp eq i32 %12, 79
  br i1 %13, label %14, label %15

14:                                               ; preds = %8
  store i1 false, ptr %3, align 1
  br label %37

15:                                               ; preds = %8
  br label %24

16:                                               ; preds = %2
  %17 = load ptr, ptr %5, align 8
  %18 = getelementptr inbounds nuw %struct.EventTriggerCacheItem, ptr %17, i32 0, i32 1
  %19 = load i8, ptr %18, align 4
  %20 = sext i8 %19 to i32
  %21 = icmp eq i32 %20, 82
  br i1 %21, label %22, label %23

22:                                               ; preds = %16
  store i1 false, ptr %3, align 1
  br label %37

23:                                               ; preds = %16
  br label %24

24:                                               ; preds = %23, %15
  %25 = load ptr, ptr %5, align 8
  %26 = getelementptr inbounds nuw %struct.EventTriggerCacheItem, ptr %25, i32 0, i32 2
  %27 = load ptr, ptr %26, align 8
  %28 = icmp eq ptr %27, null
  br i1 %28, label %36, label %29

29:                                               ; preds = %24
  %30 = load i32, ptr %4, align 4
  %31 = load ptr, ptr %5, align 8
  %32 = getelementptr inbounds nuw %struct.EventTriggerCacheItem, ptr %31, i32 0, i32 2
  %33 = load ptr, ptr %32, align 8
  %34 = call zeroext i1 @bms_is_member(i32 noundef %30, ptr noundef %33)
  br i1 %34, label %36, label %35

35:                                               ; preds = %29
  store i1 false, ptr %3, align 1
  br label %37

36:                                               ; preds = %29, %24
  store i1 true, ptr %3, align 1
  br label %37

37:                                               ; preds = %36, %35, %22, %14
  %38 = load i1, ptr %3, align 1
  ret i1 %38
}

; Function Attrs: nounwind uwtable
define internal i32 @EventTriggerGetTag(ptr noundef %0, i32 noundef %1) #0 {
  %3 = alloca i32, align 4
  %4 = alloca ptr, align 8
  %5 = alloca i32, align 4
  store ptr %0, ptr %4, align 8
  store i32 %1, ptr %5, align 4
  %6 = load i32, ptr %5, align 4
  %7 = icmp eq i32 %6, 4
  br i1 %7, label %8, label %9

8:                                                ; preds = %2
  store i32 162, ptr %3, align 4
  br label %12

9:                                                ; preds = %2
  %10 = load ptr, ptr %4, align 8
  %11 = call i32 @CreateCommandTag(ptr noundef %10)
  store i32 %11, ptr %3, align 4
  br label %12

12:                                               ; preds = %9, %8
  %13 = load i32, ptr %3, align 4
  ret i32 %13
}

; Function Attrs: nounwind uwtable
define internal ptr @EventTriggerCommonSetup(ptr noundef %0, i32 noundef %1, ptr noundef %2, ptr noundef %3, i1 noundef zeroext %4) #0 {
  %6 = alloca ptr, align 8
  %7 = alloca ptr, align 8
  %8 = alloca i32, align 4
  %9 = alloca ptr, align 8
  %10 = alloca ptr, align 8
  %11 = alloca i8, align 1
  %12 = alloca i32, align 4
  %13 = alloca ptr, align 8
  %14 = alloca ptr, align 8
  %15 = alloca ptr, align 8
  %16 = alloca i32, align 4
  %17 = alloca %struct.ForEachState, align 8
  %18 = alloca ptr, align 8
  store ptr %0, ptr %7, align 8
  store i32 %1, ptr %8, align 4
  store ptr %2, ptr %9, align 8
  store ptr %3, ptr %10, align 8
  %19 = zext i1 %4 to i8
  store i8 %19, ptr %11, align 1
  call void @llvm.lifetime.start.p0(i64 4, ptr %12) #10
  call void @llvm.lifetime.start.p0(i64 8, ptr %13) #10
  call void @llvm.lifetime.start.p0(i64 8, ptr %14) #10
  call void @llvm.lifetime.start.p0(i64 8, ptr %15) #10
  store ptr null, ptr %15, align 8
  %20 = load i32, ptr %8, align 4
  %21 = call ptr @EventCacheLookup(i32 noundef %20)
  store ptr %21, ptr %13, align 8
  %22 = load ptr, ptr %13, align 8
  %23 = icmp eq ptr %22, null
  br i1 %23, label %24, label %25

24:                                               ; preds = %5
  store ptr null, ptr %6, align 8
  store i32 1, ptr %16, align 4
  br label %96

25:                                               ; preds = %5
  %26 = load ptr, ptr %7, align 8
  %27 = load i32, ptr %8, align 4
  %28 = call i32 @EventTriggerGetTag(ptr noundef %26, i32 noundef %27)
  store i32 %28, ptr %12, align 4
  call void @llvm.lifetime.start.p0(i64 16, ptr %17) #10
  %29 = getelementptr inbounds nuw %struct.ForEachState, ptr %17, i32 0, i32 0
  %30 = load ptr, ptr %13, align 8
  store ptr %30, ptr %29, align 8
  %31 = getelementptr inbounds nuw %struct.ForEachState, ptr %17, i32 0, i32 1
  store i32 0, ptr %31, align 8
  %32 = getelementptr i8, ptr %17, i64 12
  call void @llvm.memset.p0.i64(ptr align 4 %32, i8 0, i64 4, i1 false)
  br label %33

33:                                               ; preds = %75, %25
  %34 = getelementptr inbounds nuw %struct.ForEachState, ptr %17, i32 0, i32 0
  %35 = load ptr, ptr %34, align 8
  %36 = icmp ne ptr %35, null
  br i1 %36, label %37, label %54

37:                                               ; preds = %33
  %38 = getelementptr inbounds nuw %struct.ForEachState, ptr %17, i32 0, i32 1
  %39 = load i32, ptr %38, align 8
  %40 = getelementptr inbounds nuw %struct.ForEachState, ptr %17, i32 0, i32 0
  %41 = load ptr, ptr %40, align 8
  %42 = getelementptr inbounds nuw %struct.List, ptr %41, i32 0, i32 1
  %43 = load i32, ptr %42, align 4
  %44 = icmp slt i32 %39, %43
  br i1 %44, label %45, label %54

45:                                               ; preds = %37
  %46 = getelementptr inbounds nuw %struct.ForEachState, ptr %17, i32 0, i32 0
  %47 = load ptr, ptr %46, align 8
  %48 = getelementptr inbounds nuw %struct.List, ptr %47, i32 0, i32 3
  %49 = load ptr, ptr %48, align 8
  %50 = getelementptr inbounds nuw %struct.ForEachState, ptr %17, i32 0, i32 1
  %51 = load i32, ptr %50, align 8
  %52 = sext i32 %51 to i64
  %53 = getelementptr inbounds %union.ListCell, ptr %49, i64 %52
  store ptr %53, ptr %14, align 8
  br label %55

54:                                               ; preds = %37, %33
  store ptr null, ptr %14, align 8
  br label %55

55:                                               ; preds = %54, %45
  %56 = phi i32 [ 1, %45 ], [ 0, %54 ]
  %57 = icmp ne i32 %56, 0
  br i1 %57, label %59, label %58

58:                                               ; preds = %55
  store i32 2, ptr %16, align 4
  call void @llvm.lifetime.end.p0(i64 16, ptr %17) #10
  br label %79

59:                                               ; preds = %55
  call void @llvm.lifetime.start.p0(i64 8, ptr %18) #10
  %60 = load ptr, ptr %14, align 8
  %61 = load ptr, ptr %60, align 8
  store ptr %61, ptr %18, align 8
  %62 = load i8, ptr %11, align 1, !range !8, !noundef !9
  %63 = trunc i8 %62 to i1
  br i1 %63, label %68, label %64

64:                                               ; preds = %59
  %65 = load i32, ptr %12, align 4
  %66 = load ptr, ptr %18, align 8
  %67 = call zeroext i1 @filter_event_trigger(i32 noundef %65, ptr noundef %66)
  br i1 %67, label %68, label %74

68:                                               ; preds = %64, %59
  %69 = load ptr, ptr %15, align 8
  %70 = load ptr, ptr %18, align 8
  %71 = getelementptr inbounds nuw %struct.EventTriggerCacheItem, ptr %70, i32 0, i32 0
  %72 = load i32, ptr %71, align 8
  %73 = call ptr @lappend_oid(ptr noundef %69, i32 noundef %72)
  store ptr %73, ptr %15, align 8
  br label %74

74:                                               ; preds = %68, %64
  call void @llvm.lifetime.end.p0(i64 8, ptr %18) #10
  br label %75

75:                                               ; preds = %74
  %76 = getelementptr inbounds nuw %struct.ForEachState, ptr %17, i32 0, i32 1
  %77 = load i32, ptr %76, align 8
  %78 = add i32 %77, 1
  store i32 %78, ptr %76, align 8
  br label %33, !llvm.loop !10

79:                                               ; preds = %58
  %80 = load ptr, ptr %15, align 8
  %81 = icmp eq ptr %80, null
  br i1 %81, label %82, label %83

82:                                               ; preds = %79
  store ptr null, ptr %6, align 8
  store i32 1, ptr %16, align 4
  br label %96

83:                                               ; preds = %79
  %84 = load ptr, ptr %10, align 8
  %85 = getelementptr inbounds nuw %struct.EventTriggerData, ptr %84, i32 0, i32 0
  store i32 440, ptr %85, align 8
  %86 = load ptr, ptr %9, align 8
  %87 = load ptr, ptr %10, align 8
  %88 = getelementptr inbounds nuw %struct.EventTriggerData, ptr %87, i32 0, i32 1
  store ptr %86, ptr %88, align 8
  %89 = load ptr, ptr %7, align 8
  %90 = load ptr, ptr %10, align 8
  %91 = getelementptr inbounds nuw %struct.EventTriggerData, ptr %90, i32 0, i32 2
  store ptr %89, ptr %91, align 8
  %92 = load i32, ptr %12, align 4
  %93 = load ptr, ptr %10, align 8
  %94 = getelementptr inbounds nuw %struct.EventTriggerData, ptr %93, i32 0, i32 3
  store i32 %92, ptr %94, align 8
  %95 = load ptr, ptr %15, align 8
  store ptr %95, ptr %6, align 8
  store i32 1, ptr %16, align 4
  br label %96

96:                                               ; preds = %83, %82, %24
  call void @llvm.lifetime.end.p0(i64 8, ptr %15) #10
  call void @llvm.lifetime.end.p0(i64 8, ptr %14) #10
  call void @llvm.lifetime.end.p0(i64 8, ptr %13) #10
  call void @llvm.lifetime.end.p0(i64 4, ptr %12) #10
  %97 = load ptr, ptr %6, align 8
  ret ptr %97
}

; Function Attrs: nounwind uwtable
define dso_local void @EventTriggerDDLCommandEnd(ptr noundef %0) #0 {
  %2 = alloca ptr, align 8
  %3 = alloca ptr, align 8
  %4 = alloca %struct.EventTriggerData, align 8
  %5 = alloca i32, align 4
  store ptr %0, ptr %2, align 8
  call void @llvm.lifetime.start.p0(i64 8, ptr %3) #10
  call void @llvm.lifetime.start.p0(i64 32, ptr %4) #10
  %6 = load i8, ptr @IsUnderPostmaster, align 1, !range !8, !noundef !9
  %7 = trunc i8 %6 to i1
  br i1 %7, label %8, label %11

8:                                                ; preds = %1
  %9 = load i8, ptr @event_triggers, align 1, !range !8, !noundef !9
  %10 = trunc i8 %9 to i1
  br i1 %10, label %12, label %11

11:                                               ; preds = %8, %1
  store i32 1, ptr %5, align 4
  br label %25

12:                                               ; preds = %8
  %13 = load ptr, ptr @currentEventTriggerState, align 8
  %14 = icmp ne ptr %13, null
  br i1 %14, label %16, label %15

15:                                               ; preds = %12
  store i32 1, ptr %5, align 4
  br label %25

16:                                               ; preds = %12
  %17 = load ptr, ptr %2, align 8
  %18 = call ptr @EventTriggerCommonSetup(ptr noundef %17, i32 noundef 1, ptr noundef @.str.4, ptr noundef %4, i1 noundef zeroext false)
  store ptr %18, ptr %3, align 8
  %19 = load ptr, ptr %3, align 8
  %20 = icmp eq ptr %19, null
  br i1 %20, label %21, label %22

21:                                               ; preds = %16
  store i32 1, ptr %5, align 4
  br label %25

22:                                               ; preds = %16
  call void @CommandCounterIncrement()
  %23 = load ptr, ptr %3, align 8
  call void @EventTriggerInvoke(ptr noundef %23, ptr noundef %4)
  %24 = load ptr, ptr %3, align 8
  call void @list_free(ptr noundef %24)
  store i32 0, ptr %5, align 4
  br label %25

25:                                               ; preds = %22, %21, %15, %11
  call void @llvm.lifetime.end.p0(i64 32, ptr %4) #10
  call void @llvm.lifetime.end.p0(i64 8, ptr %3) #10
  %26 = load i32, ptr %5, align 4
  switch i32 %26, label %28 [
    i32 0, label %27
    i32 1, label %27
  ]

27:                                               ; preds = %25, %25
  ret void

28:                                               ; preds = %25
  unreachable
}