; Function Attrs: nounwind uwtable
define dso_local void @EventTriggerDDLCommandEnd(ptr noundef %0) local_unnamed_addr #0 {
  %2 = alloca %struct.EventTriggerData, align 8
  call void @llvm.lifetime.start.p0(i64 32, ptr nonnull %2) #16
  %3 = load i8, ptr @IsUnderPostmaster, align 1, !range !9, !noundef !10
  %4 = trunc nuw i8 %3 to i1
  br i1 %4, label %5, label %EventTriggerCommonSetup.exit.thread

5:                                                ; preds = %1
  %6 = load i8, ptr @event_triggers, align 1, !range !9, !noundef !10
  %7 = trunc nuw i8 %6 to i1
  %8 = load ptr, ptr @currentEventTriggerState, align 8
  %.not = icmp ne ptr %8, null
  %or.cond.not = select i1 %7, i1 %.not, i1 false
  br i1 %or.cond.not, label %9, label %EventTriggerCommonSetup.exit.thread

9:                                                ; preds = %5
  %10 = tail call ptr @EventCacheLookup(i32 noundef 1) #16
  %11 = icmp eq ptr %10, null
  br i1 %11, label %EventTriggerCommonSetup.exit.thread, label %12

12:                                               ; preds = %9
  %13 = tail call i32 @CreateCommandTag(ptr noundef %0) #16
  %14 = getelementptr inbounds nuw i8, ptr %10, i64 4
  %15 = load i32, ptr %14, align 4
  %.not31.i = icmp sgt i32 %15, 0
  br i1 %.not31.i, label %.lr.ph.i, label %EventTriggerCommonSetup.exit.thread

.lr.ph.i:                                         ; preds = %12
  %16 = getelementptr inbounds nuw i8, ptr %10, i64 16
  br label %.lr.ph.split.i

._crit_edge.i:                                    ; preds = %filter_event_trigger.exit.thread.i
  %17 = icmp eq ptr %.1.i, null
  br i1 %17, label %EventTriggerCommonSetup.exit.thread, label %39

.lr.ph.split.i:                                   ; preds = %filter_event_trigger.exit.thread.i, %.lr.ph.i
  %indvars.iv.i = phi i64 [ %indvars.iv.next.i, %filter_event_trigger.exit.thread.i ], [ 0, %.lr.ph.i ]
  %.02532.i = phi ptr [ %.1.i, %filter_event_trigger.exit.thread.i ], [ null, %.lr.ph.i ]
  %18 = load ptr, ptr %16, align 8
  %19 = getelementptr inbounds nuw %union.ListCell, ptr %18, i64 %indvars.iv.i
  %20 = load ptr, ptr %19, align 8
  %21 = load i32, ptr @SessionReplicationRole, align 4
  %22 = icmp eq i32 %21, 1
  %23 = getelementptr inbounds nuw i8, ptr %20, i64 4
  %24 = load i8, ptr %23, align 4
  br i1 %22, label %25, label %27

25:                                               ; preds = %.lr.ph.split.i
  %26 = icmp eq i8 %24, 79
  br i1 %26, label %filter_event_trigger.exit.thread.i, label %29

27:                                               ; preds = %.lr.ph.split.i
  %28 = icmp eq i8 %24, 82
  br i1 %28, label %filter_event_trigger.exit.thread.i, label %29

29:                                               ; preds = %27, %25
  %30 = getelementptr inbounds nuw i8, ptr %20, i64 8
  %31 = load ptr, ptr %30, align 8
  %32 = icmp eq ptr %31, null
  br i1 %32, label %filter_event_trigger.exit.i, label %33

33:                                               ; preds = %29
  %34 = tail call zeroext i1 @bms_is_member(i32 noundef %13, ptr noundef nonnull %31) #16
  br i1 %34, label %filter_event_trigger.exit.i, label %filter_event_trigger.exit.thread.i

filter_event_trigger.exit.i:                      ; preds = %33, %29
  %35 = load i32, ptr %20, align 8
  %36 = tail call ptr @lappend_oid(ptr noundef %.02532.i, i32 noundef %35) #16
  br label %filter_event_trigger.exit.thread.i

filter_event_trigger.exit.thread.i:               ; preds = %filter_event_trigger.exit.i, %33, %27, %25
  %.1.i = phi ptr [ %36, %filter_event_trigger.exit.i ], [ %.02532.i, %25 ], [ %.02532.i, %27 ], [ %.02532.i, %33 ]
  %indvars.iv.next.i = add nuw nsw i64 %indvars.iv.i, 1
  %37 = load i32, ptr %14, align 4
  %38 = sext i32 %37 to i64
  %.not.i = icmp slt i64 %indvars.iv.next.i, %38
  br i1 %.not.i, label %.lr.ph.split.i, label %._crit_edge.i, !llvm.loop !11

39:                                               ; preds = %._crit_edge.i
  store i32 440, ptr %2, align 8
  %40 = getelementptr inbounds nuw i8, ptr %2, i64 8
  store ptr @.str.4, ptr %40, align 8
  %41 = getelementptr inbounds nuw i8, ptr %2, i64 16
  store ptr %0, ptr %41, align 8
  %42 = getelementptr inbounds nuw i8, ptr %2, i64 24
  store i32 %13, ptr %42, align 8
  tail call void @CommandCounterIncrement() #16
  call fastcc void @EventTriggerInvoke(ptr noundef %.1.i, ptr noundef %2)
  call void @list_free(ptr noundef nonnull %.1.i) #16
  br label %EventTriggerCommonSetup.exit.thread

EventTriggerCommonSetup.exit.thread:              ; preds = %12, %._crit_edge.i, %9, %1, %5, %39
  call void @llvm.lifetime.end.p0(i64 32, ptr nonnull %2) #16
  ret void
}